#include <math.h>
#include <stdio.h>
#include <stdlib.h>
#include <string.h>
#include <iostream>
using namespace std;

//****************************************************** 
//* ? ? ?   ?? ? ? ? ? ? ?                  *
//* ? ?      ?? ? ?                              *
//* ? ? ? ??2010 ? 12 ? 8 ?                    * 
//* ? ?      ?1000010185                            *
//****************************************************** 
int main()
{
	char a[100];
	cin.getline(a, 100);
	char *p = a; // ??p?????a????
	for (; *p != '\0'; p++) // ??p???????a
		if (*p == ' ' && *(p + 1) == ' ') // ????????
		{
			for (char *q = p + 1; *q != '\0'; q++) // ????????????????????????
				*q = *(q + 1);
			p -= 1; // ???????????
		}
	cout << a;
	return 0;
}